; Function Attrs: mustprogress uwtable
define dso_local void @_ZN11flatbuffers10CodeWriter11AppendIdentERNSt7__cxx1118basic_stringstreamIcSt11char_traitsIcESaIcEEE(ptr noundef nonnull align 8 dereferenceable(477) %this, ptr noundef nonnull align 8 dereferenceable(128) %stream) local_unnamed_addr #0 align 2 {
entry:
  %cur_ident_lvl_ = getelementptr inbounds i8, ptr %this, i64 472
  %0 = load i32, ptr %cur_ident_lvl_, align 8
  %tobool.not1 = icmp eq i32 %0, 0
  br i1 %tobool.not1, label %while.end, label %while.body.lr.ph

while.body.lr.ph:                                 ; preds = %entry
  %add.ptr = getelementptr inbounds i8, ptr %stream, i64 16
  %pad_ = getelementptr inbounds i8, ptr %this, i64 440
  br label %while.body

while.body:                                       ; preds = %while.body.lr.ph, %while.body
  %lvl.02 = phi i32 [ %0, %while.body.lr.ph ], [ %dec, %while.body ]
  %dec = add nsw i32 %lvl.02, -1
  %call = tail call noundef ptr @_ZNKSt7__cxx1112basic_stringIcSt11char_traitsIcESaIcEE5c_strEv(ptr noundef nonnull align 8 dereferenceable(32) %pad_) #12
  %call3 = tail call noundef i64 @_ZNKSt7__cxx1112basic_stringIcSt11char_traitsIcESaIcEE4sizeEv(ptr noundef nonnull align 8 dereferenceable(32) %pad_) #12
  %call4 = tail call noundef nonnull align 8 dereferenceable(8) ptr @_ZNSo5writeEPKcl(ptr noundef nonnull align 8 dereferenceable(8) %add.ptr, ptr noundef %call, i64 noundef %call3)
  %tobool.not = icmp eq i32 %dec, 0
  br i1 %tobool.not, label %while.end, label %while.body, !llvm.loop !10

while.end:                                        ; preds = %while.body, %entry
  ret void
}